target datalayout = "e-m:e-p270:32:32-p271:32:32-p272:64:64-i64:64-i128:128-f80:128-n8:16:32:64-S128"
target triple = "x86_64-pc-linux-gnu"

%struct._GArray = type { ptr, i32 }
%struct.file_type_subtype_info = type { ptr, ptr, ptr, ptr, i8, i64, ptr, ptr, ptr, ptr }
%struct.supported_block_type = type { i32, i32, i64, ptr }

@file_type_subtype_table_arr = internal global ptr null, align 8
@file_type_subtype_table = internal global ptr null, align 8

; Function Attrs: nounwind null_pointer_is_valid sspstrong uwtable
define i32 @wtap_file_type_subtype_supports_block(i32 noundef %0, i32 noundef %1) #2 {
  %3 = alloca i32, align 4
  %4 = alloca i32, align 4
  %5 = alloca i32, align 4
  %6 = alloca i64, align 8
  %7 = alloca ptr, align 8
  %8 = alloca i32, align 4
  %9 = alloca i64, align 8
  store i32 %0, ptr %4, align 4
  store i32 %1, ptr %5, align 4
  call void @llvm.lifetime.start.p0(i64 8, ptr %6) #12
  call void @llvm.lifetime.start.p0(i64 8, ptr %7) #12
  %10 = load i32, ptr %4, align 4
  %11 = icmp slt i32 %10, 0
  br i1 %11, label %18, label %12

12:                                               ; preds = %2
  %13 = load i32, ptr %4, align 4
  %14 = load ptr, ptr @file_type_subtype_table_arr, align 8
  %15 = getelementptr inbounds nuw %struct._GArray, ptr %14, i32 0, i32 1
  %16 = load i32, ptr %15, align 8
  %17 = icmp sge i32 %13, %16
  br i1 %17, label %18, label %19

18:                                               ; preds = %12, %2
  store i32 0, ptr %3, align 4
  store i32 1, ptr %8, align 4
  br label %58

19:                                               ; preds = %12
  %20 = load ptr, ptr @file_type_subtype_table, align 8
  %21 = load i32, ptr %4, align 4
  %22 = sext i32 %21 to i64
  %23 = getelementptr %struct.file_type_subtype_info, ptr %20, i64 %22
  %24 = getelementptr inbounds nuw %struct.file_type_subtype_info, ptr %23, i32 0, i32 5
  %25 = load i64, ptr %24, align 8
  store i64 %25, ptr %6, align 8
  %26 = load ptr, ptr @file_type_subtype_table, align 8
  %27 = load i32, ptr %4, align 4
  %28 = sext i32 %27 to i64
  %29 = getelementptr %struct.file_type_subtype_info, ptr %26, i64 %28
  %30 = getelementptr inbounds nuw %struct.file_type_subtype_info, ptr %29, i32 0, i32 6
  %31 = load ptr, ptr %30, align 8
  store ptr %31, ptr %7, align 8
  call void @llvm.lifetime.start.p0(i64 8, ptr %9) #12
  store i64 0, ptr %9, align 8
  br label %32

32:                                               ; preds = %52, %19
  %33 = load i64, ptr %9, align 8
  %34 = load i64, ptr %6, align 8
  %35 = icmp ult i64 %33, %34
  br i1 %35, label %37, label %36

36:                                               ; preds = %32
  store i32 2, ptr %8, align 4
  br label %55

37:                                               ; preds = %32
  %38 = load ptr, ptr %7, align 8
  %39 = load i64, ptr %9, align 8
  %40 = getelementptr %struct.supported_block_type, ptr %38, i64 %39
  %41 = getelementptr inbounds nuw %struct.supported_block_type, ptr %40, i32 0, i32 0
  %42 = load i32, ptr %41, align 8
  %43 = load i32, ptr %5, align 4
  %44 = icmp eq i32 %42, %43
  br i1 %44, label %45, label %51

45:                                               ; preds = %37
  %46 = load ptr, ptr %7, align 8
  %47 = load i64, ptr %9, align 8
  %48 = getelementptr %struct.supported_block_type, ptr %46, i64 %47
  %49 = getelementptr inbounds nuw %struct.supported_block_type, ptr %48, i32 0, i32 1
  %50 = load i32, ptr %49, align 4
  store i32 %50, ptr %3, align 4
  store i32 1, ptr %8, align 4
  br label %55

51:                                               ; preds = %37
  br label %52

52:                                               ; preds = %51
  %53 = load i64, ptr %9, align 8
  %54 = add i64 %53, 1
  store i64 %54, ptr %9, align 8
  br label %32, !llvm.loop !27

55:                                               ; preds = %45, %36
  call void @llvm.lifetime.end.p0(i64 8, ptr %9) #12
  %56 = load i32, ptr %8, align 4
  switch i32 %56, label %58 [
    i32 2, label %57
  ]

57:                                               ; preds = %55
  store i32 0, ptr %3, align 4
  store i32 1, ptr %8, align 4
  br label %58

58:                                               ; preds = %57, %55, %18
  call void @llvm.lifetime.end.p0(i64 8, ptr %7) #12
  call void @llvm.lifetime.end.p0(i64 8, ptr %6) #12
  %59 = load i32, ptr %3, align 4
  ret i32 %59
}