; Function Attrs: nofree norecurse nosync nounwind null_pointer_is_valid sspstrong memory(read, inaccessiblemem: none) uwtable
define i32 @wtap_file_type_subtype_supports_block(i32 noundef %0, i32 noundef %1) local_unnamed_addr #15 {
  %3 = icmp slt i32 %0, 0
  br i1 %3, label %.loopexit, label %4

4:                                                ; preds = %2
  %5 = load ptr, ptr @file_type_subtype_table_arr, align 8
  %6 = getelementptr inbounds nuw i8, ptr %5, i64 8
  %7 = load i32, ptr %6, align 8
  %.not = icmp slt i32 %0, %7
  br i1 %.not, label %8, label %.loopexit

8:                                                ; preds = %4
  %9 = load ptr, ptr @file_type_subtype_table, align 8
  %10 = zext nneg i32 %0 to i64
  %11 = getelementptr %struct.file_type_subtype_info, ptr %9, i64 %10
  %12 = getelementptr inbounds nuw i8, ptr %11, i64 40
  %13 = load i64, ptr %12, align 8
  %14 = getelementptr inbounds nuw i8, ptr %11, i64 48
  %15 = load ptr, ptr %14, align 8
  %.not1617.not = icmp eq i64 %13, 0
  br i1 %.not1617.not, label %.loopexit, label %.lr.ph

16:                                               ; preds = %.lr.ph
  %17 = add nuw i64 %.018, 1
  %exitcond.not = icmp eq i64 %17, %13
  br i1 %exitcond.not, label %.loopexit, label %.lr.ph, !llvm.loop !32

.lr.ph:                                           ; preds = %8, %16
  %.018 = phi i64 [ %17, %16 ], [ 0, %8 ]
  %18 = getelementptr %struct.supported_block_type, ptr %15, i64 %.018
  %19 = load i32, ptr %18, align 8
  %20 = icmp eq i32 %19, %1
  br i1 %20, label %21, label %16

21:                                               ; preds = %.lr.ph
  %22 = getelementptr inbounds nuw i8, ptr %18, i64 4
  %23 = load i32, ptr %22, align 4
  br label %.loopexit

.loopexit:                                        ; preds = %16, %8, %21, %2, %4
  %.014 = phi i32 [ 0, %4 ], [ 0, %2 ], [ %23, %21 ], [ 0, %8 ], [ 0, %16 ]
  ret i32 %.014
}